target datalayout = "e-m:e-p270:32:32-p271:32:32-p272:64:64-i64:64-i128:128-f80:128-n8:16:32:64-S128"
target triple = "x86_64-pc-linux-gnu"

; Function Attrs: mustprogress nounwind uwtable
define hidden void @_ZN6BitMap18at_put_large_rangeEmmb(ptr noundef nonnull align 8 dereferenceable(16) %0, i64 noundef %1, i64 noundef %2, i1 noundef zeroext %3) #1 align 2 {
  %5 = alloca ptr, align 8
  %6 = alloca i64, align 8
  %7 = alloca i64, align 8
  %8 = alloca i8, align 1
  store ptr %0, ptr %5, align 8
  store i64 %1, ptr %6, align 8
  store i64 %2, ptr %7, align 8
  %9 = zext i1 %3 to i8
  store i8 %9, ptr %8, align 1
  %10 = load ptr, ptr %5, align 8
  %11 = load i8, ptr %8, align 1
  %12 = trunc i8 %11 to i1
  br i1 %12, label %13, label %16

13:                                               ; preds = %4
  %14 = load i64, ptr %6, align 8
  %15 = load i64, ptr %7, align 8
  call void @_ZN6BitMap15set_large_rangeEmm(ptr noundef nonnull align 8 dereferenceable(16) %10, i64 noundef %14, i64 noundef %15)
  br label %19

16:                                               ; preds = %4
  %17 = load i64, ptr %6, align 8
  %18 = load i64, ptr %7, align 8
  call void @_ZN6BitMap17clear_large_rangeEmm(ptr noundef nonnull align 8 dereferenceable(16) %10, i64 noundef %17, i64 noundef %18)
  br label %19

19:                                               ; preds = %16, %13
  ret void
}