; Function Attrs: mustprogress nofree norecurse nosync nounwind willreturn memory(readwrite, inaccessiblemem: none) uwtable
define hidden void @_ZN6BitMap18at_put_large_rangeEmmb(ptr nocapture noundef nonnull readonly align 8 dereferenceable(16) %0, i64 noundef %1, i64 noundef %2, i1 noundef zeroext %3) local_unnamed_addr #2 align 2 {
  br i1 %3, label %5, label %6

5:                                                ; preds = %4
  tail call void @_ZN6BitMap15set_large_rangeEmm(ptr noundef nonnull align 8 dereferenceable(16) %0, i64 noundef %1, i64 noundef %2)
  br label %7

6:                                                ; preds = %4
  tail call void @_ZN6BitMap17clear_large_rangeEmm(ptr noundef nonnull align 8 dereferenceable(16) %0, i64 noundef %1, i64 noundef %2)
  br label %7

7:                                                ; preds = %6, %5
  ret void
}